target datalayout = "e-m:e-p270:32:32-p271:32:32-p272:64:64-i64:64-i128:128-f80:128-n8:16:32:64-S128"
target triple = "x86_64-pc-linux-gnu"

%struct.hwloc_topology = type { i32, i32, i32, ptr, ptr, i64, [20 x i32], [20 x i32], i64, i64, i32, ptr, i64, ptr, i64, [6 x %struct.hwloc_special_level_s], ptr, ptr, %struct.hwloc_binding_hooks, %struct.hwloc_topology_support, %struct.hwloc_infos_s, ptr, ptr, i32, ptr, ptr, i32, i32, ptr, i32, i32, ptr, i32, i32, i32, [5 x float], i32, ptr, ptr, i32, i32, ptr, i32, %struct.hwloc_numanode_attr_s, i32, i32, ptr, i64, i32, ptr, ptr, ptr }
%struct.hwloc_special_level_s = type { i32, ptr, ptr, ptr }
%struct.hwloc_binding_hooks = type { ptr, ptr, ptr, ptr, ptr, ptr, ptr, ptr, ptr, ptr, ptr, ptr, ptr, ptr, ptr, ptr, ptr, ptr, ptr, ptr, ptr, ptr, ptr, ptr }
%struct.hwloc_topology_support = type { ptr, ptr, ptr, ptr }
%struct.hwloc_infos_s = type { ptr, i32, i32 }
%struct.hwloc_numanode_attr_s = type { i64, i32, ptr }
%struct.hwloc_linux_foreach_proc_tid_get_cpubind_cb_data_s = type { ptr, ptr, i32 }

; Function Attrs: nounwind uwtable
define internal i32 @hwloc_linux_get_pid_cpubind(ptr noundef %0, i32 noundef %1, ptr noundef %2, i32 noundef %3) #0 {
  %5 = alloca ptr, align 8
  %6 = alloca i32, align 4
  %7 = alloca ptr, align 8
  %8 = alloca i32, align 4
  %9 = alloca %struct.hwloc_linux_foreach_proc_tid_get_cpubind_cb_data_s, align 8
  %10 = alloca ptr, align 8
  %11 = alloca i32, align 4
  store ptr %0, ptr %5, align 8, !tbaa !19
  store i32 %1, ptr %6, align 4, !tbaa !10
  store ptr %2, ptr %7, align 8, !tbaa !8
  store i32 %3, ptr %8, align 4, !tbaa !10
  call void @llvm.lifetime.start.p0(i64 24, ptr %9) #14
  call void @llvm.lifetime.start.p0(i64 8, ptr %10) #14
  %12 = call noalias ptr @hwloc_bitmap_alloc()
  store ptr %12, ptr %10, align 8, !tbaa !8
  call void @llvm.lifetime.start.p0(i64 4, ptr %11) #14
  %13 = load ptr, ptr %7, align 8, !tbaa !8
  %14 = getelementptr inbounds nuw %struct.hwloc_linux_foreach_proc_tid_get_cpubind_cb_data_s, ptr %9, i32 0, i32 0
  store ptr %13, ptr %14, align 8, !tbaa !109
  %15 = load ptr, ptr %10, align 8, !tbaa !8
  %16 = getelementptr inbounds nuw %struct.hwloc_linux_foreach_proc_tid_get_cpubind_cb_data_s, ptr %9, i32 0, i32 1
  store ptr %15, ptr %16, align 8, !tbaa !111
  %17 = load i32, ptr %8, align 4, !tbaa !10
  %18 = getelementptr inbounds nuw %struct.hwloc_linux_foreach_proc_tid_get_cpubind_cb_data_s, ptr %9, i32 0, i32 2
  store i32 %17, ptr %18, align 8, !tbaa !112
  %19 = load ptr, ptr %5, align 8, !tbaa !19
  %20 = load i32, ptr %6, align 4, !tbaa !10
  %21 = call i32 @hwloc_linux_foreach_proc_tid(ptr noundef %19, i32 noundef %20, ptr noundef @hwloc_linux_foreach_proc_tid_get_cpubind_cb, ptr noundef %9)
  store i32 %21, ptr %11, align 4, !tbaa !10
  %22 = load ptr, ptr %10, align 8, !tbaa !8
  call void @hwloc_bitmap_free(ptr noundef %22)
  %23 = load i32, ptr %11, align 4, !tbaa !10
  call void @llvm.lifetime.end.p0(i64 4, ptr %11) #14
  call void @llvm.lifetime.end.p0(i64 8, ptr %10) #14
  call void @llvm.lifetime.end.p0(i64 24, ptr %9) #14
  ret i32 %23
}

; Function Attrs: nounwind uwtable
define internal i32 @hwloc_linux_get_thisproc_cpubind(ptr noundef %0, ptr noundef %1, i32 noundef %2) #0 {
  %4 = alloca ptr, align 8
  %5 = alloca ptr, align 8
  %6 = alloca i32, align 4
  store ptr %0, ptr %4, align 8, !tbaa !19
  store ptr %1, ptr %5, align 8, !tbaa !8
  store i32 %2, ptr %6, align 4, !tbaa !10
  %7 = load ptr, ptr %4, align 8, !tbaa !19
  %8 = load ptr, ptr %4, align 8, !tbaa !19
  %9 = getelementptr inbounds nuw %struct.hwloc_topology, ptr %8, i32 0, i32 10
  %10 = load i32, ptr %9, align 8, !tbaa !86
  %11 = load ptr, ptr %5, align 8, !tbaa !8
  %12 = load i32, ptr %6, align 4, !tbaa !10
  %13 = call i32 @hwloc_linux_get_pid_cpubind(ptr noundef %7, i32 noundef %10, ptr noundef %11, i32 noundef %12)
  ret i32 %13
}