; Function Attrs: nounwind uwtable
define internal range(i32 -1, 1) i32 @hwloc_linux_get_thisproc_cpubind(ptr noundef %0, ptr noundef %1, i32 noundef %2) #0 {
  %4 = alloca %struct.hwloc_linux_foreach_proc_tid_get_cpubind_cb_data_s, align 8
  %5 = getelementptr inbounds nuw i8, ptr %0, i64 216
  %6 = load i32, ptr %5, align 8, !tbaa !77
  call void @llvm.lifetime.start.p0(i64 24, ptr nonnull %4) #27
  %7 = tail call noalias ptr @hwloc_bitmap_alloc() #27
  store ptr %1, ptr %4, align 8, !tbaa !78
  %8 = getelementptr inbounds nuw i8, ptr %4, i64 8
  store ptr %7, ptr %8, align 8, !tbaa !80
  %9 = getelementptr inbounds nuw i8, ptr %4, i64 16
  store i32 %2, ptr %9, align 8, !tbaa !81
  %10 = call fastcc i32 @hwloc_linux_foreach_proc_tid(ptr noundef %0, i32 noundef %6, ptr noundef nonnull @hwloc_linux_foreach_proc_tid_get_cpubind_cb, ptr noundef nonnull %4)
  call void @hwloc_bitmap_free(ptr noundef %7) #27
  call void @llvm.lifetime.end.p0(i64 24, ptr nonnull %4) #27
  ret i32 %10
}